ccopy_reg
_reconstructor
p0
(csklearn.linear_model.stochastic_gradient
SGDClassifier
p1
c__builtin__
object
p2
Ntp3
Rp4
(dp5
S't_'
p6
F36206.0
sS'n_jobs'
p7
I1
sS'shuffle'
p8
I01
sS'verbose'
p9
I0
sS'classes_'
p10
cnumpy.core.multiarray
_reconstruct
p11
(cnumpy
ndarray
p12
(I0
tp13
S'b'
p14
tp15
Rp16
(I1
(I2
tp17
cnumpy
dtype
p18
(S'f8'
p19
I0
I1
tp20
Rp21
(I3
S'<'
p22
NNNI-1
I-1
I0
tp23
bI00
S'\x00\x00\x00\x00\x00\x00\x00\x00\x00\x00\x00\x00\x00\x00\xf0?'
p24
tp25
bsS'class_weight'
p26
NsS'fit_intercept'
p27
I01
sS'penalty'
p28
S'l2'
p29
sS'random_state'
p30
NsS'loss_function'
p31
csklearn.linear_model.sgd_fast
Hinge
p32
(F1.0
tp33
Rp34
sS'C'
p35
F1.0
sS'n_iter'
p36
I5
sS'epsilon'
p37
F0.1
sS'learning_rate'
p38
S'optimal'
p39
sS'coef_'
p40
g11
(g12
(I0
tp41
g14
tp42
Rp43
(I1
(I1
I5
tp44
g21
I00
S'As3W\xf2\x1bI@\xb3p\xc5\x98\xf3\x93\x1d@\x80{*\x8a\x05\x976\xc0\x11W\xc5\x11\xf5\xab8@wq*X5\x96O\xc0'
p45
tp46
bsS'alpha'
p47
F0.0001
sS'intercept_'
p48
g11
(g12
(I0
tp49
g14
tp50
Rp51
(I1
(I1
tp52
g21
I00
S'~\x8a\xc1\x13\xfc\xd8`\xc0'
p53
tp54
bsS'_expanded_class_weight'
p55
g11
(g12
(I0
tp56
g14
tp57
Rp58
(I1
(I2
tp59
g21
I00
S'\x00\x00\x00\x00\x00\x00\xf0?\x00\x00\x00\x00\x00\x00\xf0?'
p60
tp61
bsS'warm_start'
p62
I00
sS'loss'
p63
S'hinge'
p64
sS'eta0'
p65
F0.0
sS'l1_ratio'
p66
F0.15
sS'average'
p67
I00
sS'power_t'
p68
F0.5
sb.